target datalayout = "e-m:e-p270:32:32-p271:32:32-p272:64:64-i64:64-i128:128-f80:128-n8:16:32:64-S128"
target triple = "x86_64-pc-linux-gnu"

%struct.Vec_Int_t_ = type { i32, i32, ptr }
%struct.Vec_Wec_t_ = type { i32, i32, ptr }
%struct.timespec = type { i64, i64 }

@.str.5 = private unnamed_addr constant [66 x i8] c"Detected %d full-adders and %d half-adders.  Found %d XOR-cuts.  \00", align 1
@.str.6 = private unnamed_addr constant [5 x i8] c"Time\00", align 1
@.str.8 = private unnamed_addr constant [5 x i8] c"%s =\00", align 1
@.str.9 = private unnamed_addr constant [11 x i8] c"%9.2f sec\0A\00", align 1

; Function Attrs: inlinehint nounwind uwtable
define internal void @Vec_WecErase(ptr noundef %0) #2 {
  %2 = alloca ptr, align 8
  %3 = alloca i32, align 4
  store ptr %0, ptr %2, align 8, !tbaa !61
  call void @llvm.lifetime.start.p0(i64 4, ptr %3) #12
  store i32 0, ptr %3, align 4, !tbaa !10
  br label %4

4:                                                ; preds = %38, %1
  %5 = load i32, ptr %3, align 4, !tbaa !10
  %6 = load ptr, ptr %2, align 8, !tbaa !61
  %7 = getelementptr inbounds nuw %struct.Vec_Wec_t_, ptr %6, i32 0, i32 0
  %8 = load i32, ptr %7, align 8, !tbaa !109
  %9 = icmp slt i32 %5, %8
  br i1 %9, label %10, label %41

10:                                               ; preds = %4
  %11 = load ptr, ptr %2, align 8, !tbaa !61
  %12 = getelementptr inbounds nuw %struct.Vec_Wec_t_, ptr %11, i32 0, i32 2
  %13 = load ptr, ptr %12, align 8, !tbaa !68
  %14 = load i32, ptr %3, align 4, !tbaa !10
  %15 = sext i32 %14 to i64
  %16 = getelementptr inbounds %struct.Vec_Int_t_, ptr %13, i64 %15
  %17 = getelementptr inbounds nuw %struct.Vec_Int_t_, ptr %16, i32 0, i32 2
  %18 = load ptr, ptr %17, align 8, !tbaa !19
  %19 = icmp ne ptr %18, null
  br i1 %19, label %20, label %36

20:                                               ; preds = %10
  %21 = load ptr, ptr %2, align 8, !tbaa !61
  %22 = getelementptr inbounds nuw %struct.Vec_Wec_t_, ptr %21, i32 0, i32 2
  %23 = load ptr, ptr %22, align 8, !tbaa !68
  %24 = load i32, ptr %3, align 4, !tbaa !10
  %25 = sext i32 %24 to i64
  %26 = getelementptr inbounds %struct.Vec_Int_t_, ptr %23, i64 %25
  %27 = getelementptr inbounds nuw %struct.Vec_Int_t_, ptr %26, i32 0, i32 2
  %28 = load ptr, ptr %27, align 8, !tbaa !19
  call void @free(ptr noundef %28) #12
  %29 = load ptr, ptr %2, align 8, !tbaa !61
  %30 = getelementptr inbounds nuw %struct.Vec_Wec_t_, ptr %29, i32 0, i32 2
  %31 = load ptr, ptr %30, align 8, !tbaa !68
  %32 = load i32, ptr %3, align 4, !tbaa !10
  %33 = sext i32 %32 to i64
  %34 = getelementptr inbounds %struct.Vec_Int_t_, ptr %31, i64 %33
  %35 = getelementptr inbounds nuw %struct.Vec_Int_t_, ptr %34, i32 0, i32 2
  store ptr null, ptr %35, align 8, !tbaa !19
  br label %37

36:                                               ; preds = %10
  br label %37

37:                                               ; preds = %36, %20
  br label %38

38:                                               ; preds = %37
  %39 = load i32, ptr %3, align 4, !tbaa !10
  %40 = add nsw i32 %39, 1
  store i32 %40, ptr %3, align 4, !tbaa !10
  br label %4, !llvm.loop !117

41:                                               ; preds = %4
  %42 = load ptr, ptr %2, align 8, !tbaa !61
  %43 = getelementptr inbounds nuw %struct.Vec_Wec_t_, ptr %42, i32 0, i32 2
  %44 = load ptr, ptr %43, align 8, !tbaa !68
  %45 = icmp ne ptr %44, null
  br i1 %45, label %46, label %52

46:                                               ; preds = %41
  %47 = load ptr, ptr %2, align 8, !tbaa !61
  %48 = getelementptr inbounds nuw %struct.Vec_Wec_t_, ptr %47, i32 0, i32 2
  %49 = load ptr, ptr %48, align 8, !tbaa !68
  call void @free(ptr noundef %49) #12
  %50 = load ptr, ptr %2, align 8, !tbaa !61
  %51 = getelementptr inbounds nuw %struct.Vec_Wec_t_, ptr %50, i32 0, i32 2
  store ptr null, ptr %51, align 8, !tbaa !68
  br label %53

52:                                               ; preds = %41
  br label %53

53:                                               ; preds = %52, %46
  %54 = load ptr, ptr %2, align 8, !tbaa !61
  %55 = getelementptr inbounds nuw %struct.Vec_Wec_t_, ptr %54, i32 0, i32 1
  store i32 0, ptr %55, align 4, !tbaa !64
  %56 = load ptr, ptr %2, align 8, !tbaa !61
  %57 = getelementptr inbounds nuw %struct.Vec_Wec_t_, ptr %56, i32 0, i32 0
  store i32 0, ptr %57, align 8, !tbaa !109
  call void @llvm.lifetime.end.p0(i64 4, ptr %3) #12
  ret void
}

; Function Attrs: inlinehint nounwind uwtable
define internal void @Vec_WecFree(ptr noundef %0) #2 {
  %2 = alloca ptr, align 8
  store ptr %0, ptr %2, align 8, !tbaa !61
  %3 = load ptr, ptr %2, align 8, !tbaa !61
  call void @Vec_WecErase(ptr noundef %3)
  %4 = load ptr, ptr %2, align 8, !tbaa !61
  %5 = icmp ne ptr %4, null
  br i1 %5, label %6, label %8

6:                                                ; preds = %1
  %7 = load ptr, ptr %2, align 8, !tbaa !61
  call void @free(ptr noundef %7) #12
  store ptr null, ptr %2, align 8, !tbaa !61
  br label %9

8:                                                ; preds = %1
  br label %9

9:                                                ; preds = %8, %6
  ret void
}

; Function Attrs: inlinehint nounwind uwtable
define internal void @Vec_IntFree(ptr noundef %0) #2 {
  %2 = alloca ptr, align 8
  store ptr %0, ptr %2, align 8, !tbaa !8
  %3 = load ptr, ptr %2, align 8, !tbaa !8
  %4 = getelementptr inbounds nuw %struct.Vec_Int_t_, ptr %3, i32 0, i32 2
  %5 = load ptr, ptr %4, align 8, !tbaa !19
  %6 = icmp ne ptr %5, null
  br i1 %6, label %7, label %13

7:                                                ; preds = %1
  %8 = load ptr, ptr %2, align 8, !tbaa !8
  %9 = getelementptr inbounds nuw %struct.Vec_Int_t_, ptr %8, i32 0, i32 2
  %10 = load ptr, ptr %9, align 8, !tbaa !19
  call void @free(ptr noundef %10) #12
  %11 = load ptr, ptr %2, align 8, !tbaa !8
  %12 = getelementptr inbounds nuw %struct.Vec_Int_t_, ptr %11, i32 0, i32 2
  store ptr null, ptr %12, align 8, !tbaa !19
  br label %14

13:                                               ; preds = %1
  br label %14

14:                                               ; preds = %13, %7
  %15 = load ptr, ptr %2, align 8, !tbaa !8
  %16 = icmp ne ptr %15, null
  br i1 %16, label %17, label %19

17:                                               ; preds = %14
  %18 = load ptr, ptr %2, align 8, !tbaa !8
  call void @free(ptr noundef %18) #12
  store ptr null, ptr %2, align 8, !tbaa !8
  br label %20

19:                                               ; preds = %14
  br label %20

20:                                               ; preds = %19, %17
  ret void
}

; Function Attrs: inlinehint nounwind uwtable
define internal void @Abc_PrintTime(i32 noundef %0, ptr noundef %1, i64 noundef %2) #2 {
  %4 = alloca i32, align 4
  %5 = alloca ptr, align 8
  %6 = alloca i64, align 8
  store i32 %0, ptr %4, align 4, !tbaa !10
  store ptr %1, ptr %5, align 8, !tbaa !90
  store i64 %2, ptr %6, align 8, !tbaa !89
  %7 = load ptr, ptr %5, align 8, !tbaa !90
  call void (i32, ptr, ...) @Abc_Print(i32 noundef 1, ptr noundef @.str.8, ptr noundef %7)
  %8 = load i64, ptr %6, align 8, !tbaa !89
  %9 = sitofp i64 %8 to double
  %10 = fmul double 1.000000e+00, %9
  %11 = fdiv double %10, 1.000000e+06
  call void (i32, ptr, ...) @Abc_Print(i32 noundef 1, ptr noundef @.str.9, double noundef %11)
  ret void
}

; Function Attrs: inlinehint nounwind uwtable
define internal i32 @Vec_IntSize(ptr noundef %0) #2 {
  %2 = alloca ptr, align 8
  store ptr %0, ptr %2, align 8, !tbaa !8
  %3 = load ptr, ptr %2, align 8, !tbaa !8
  %4 = getelementptr inbounds nuw %struct.Vec_Int_t_, ptr %3, i32 0, i32 1
  %5 = load i32, ptr %4, align 4, !tbaa !15
  ret i32 %5
}

; Function Attrs: inlinehint nounwind uwtable
define internal i64 @Abc_Clock() #2 {
  %1 = alloca i64, align 8
  %2 = alloca %struct.timespec, align 8
  %3 = alloca i32, align 4
  %4 = alloca i64, align 8
  call void @llvm.lifetime.start.p0(i64 16, ptr %2) #12
  %5 = call i32 @clock_gettime(i32 noundef 1, ptr noundef %2) #12
  %6 = icmp slt i32 %5, 0
  br i1 %6, label %7, label %8

7:                                                ; preds = %0
  store i64 -1, ptr %1, align 8
  store i32 1, ptr %3, align 4
  br label %19

8:                                                ; preds = %0
  call void @llvm.lifetime.start.p0(i64 8, ptr %4) #12
  %9 = getelementptr inbounds nuw %struct.timespec, ptr %2, i32 0, i32 0
  %10 = load i64, ptr %9, align 8, !tbaa !110
  %11 = mul nsw i64 %10, 1000000
  store i64 %11, ptr %4, align 8, !tbaa !89
  %12 = getelementptr inbounds nuw %struct.timespec, ptr %2, i32 0, i32 1
  %13 = load i64, ptr %12, align 8, !tbaa !112
  %14 = mul nsw i64 %13, 1000000
  %15 = sdiv i64 %14, 1000000000
  %16 = load i64, ptr %4, align 8, !tbaa !89
  %17 = add nsw i64 %16, %15
  store i64 %17, ptr %4, align 8, !tbaa !89
  %18 = load i64, ptr %4, align 8, !tbaa !89
  store i64 %18, ptr %1, align 8
  store i32 1, ptr %3, align 4
  call void @llvm.lifetime.end.p0(i64 8, ptr %4) #12
  br label %19

19:                                               ; preds = %8, %7
  call void @llvm.lifetime.end.p0(i64 16, ptr %2) #12
  %20 = load i64, ptr %1, align 8
  ret i64 %20
}

; Function Attrs: nounwind uwtable
define ptr @Acec_ProduceBox(ptr noundef %0, i32 noundef %1) #0 {
  %3 = alloca ptr, align 8
  %4 = alloca i32, align 4
  %5 = alloca i64, align 8
  %6 = alloca ptr, align 8
  %7 = alloca ptr, align 8
  %8 = alloca ptr, align 8
  %9 = alloca ptr, align 8
  %10 = alloca ptr, align 8
  %11 = alloca ptr, align 8
  %12 = alloca ptr, align 8
  %13 = alloca ptr, align 8
  store ptr %0, ptr %3, align 8, !tbaa !3
  store i32 %1, ptr %4, align 4, !tbaa !10
  call void @llvm.lifetime.start.p0(i64 8, ptr %5) #12
  %14 = call i64 @Abc_Clock()
  store i64 %14, ptr %5, align 8, !tbaa !89
  call void @llvm.lifetime.start.p0(i64 8, ptr %6) #12
  store ptr null, ptr %6, align 8, !tbaa !69
  call void @llvm.lifetime.start.p0(i64 8, ptr %7) #12
  call void @llvm.lifetime.start.p0(i64 8, ptr %8) #12
  %15 = load ptr, ptr %3, align 8, !tbaa !3
  %16 = call ptr @Ree_ManComputeCuts(ptr noundef %15, ptr noundef %7, i32 noundef 0)
  store ptr %16, ptr %8, align 8, !tbaa !8
  call void @llvm.lifetime.start.p0(i64 8, ptr %9) #12
  call void @llvm.lifetime.start.p0(i64 8, ptr %10) #12
  %17 = load ptr, ptr %3, align 8, !tbaa !3
  %18 = load ptr, ptr %7, align 8, !tbaa !8
  %19 = call ptr @Acec_FindXorRoots(ptr noundef %17, ptr noundef %18)
  store ptr %19, ptr %10, align 8, !tbaa !8
  call void @llvm.lifetime.start.p0(i64 8, ptr %11) #12
  %20 = load ptr, ptr %3, align 8, !tbaa !3
  %21 = load ptr, ptr %7, align 8, !tbaa !8
  %22 = load ptr, ptr %10, align 8, !tbaa !8
  %23 = call ptr @Acec_RankTrees(ptr noundef %20, ptr noundef %21, ptr noundef %22)
  store ptr %23, ptr %11, align 8, !tbaa !8
  call void @llvm.lifetime.start.p0(i64 8, ptr %12) #12
  call void @llvm.lifetime.start.p0(i64 8, ptr %13) #12
  store ptr null, ptr %13, align 8, !tbaa !61
  %24 = load ptr, ptr %3, align 8, !tbaa !3
  %25 = call i32 @Gia_ManLevelNum(ptr noundef %24)
  %26 = load i32, ptr %4, align 4, !tbaa !10
  %27 = icmp ne i32 %26, 0
  br i1 %27, label %28, label %41

28:                                               ; preds = %2
  %29 = load ptr, ptr %8, align 8, !tbaa !8
  %30 = call i32 @Ree_ManCountFadds(ptr noundef %29)
  %31 = load ptr, ptr %8, align 8, !tbaa !8
  %32 = call i32 @Vec_IntSize(ptr noundef %31)
  %33 = sdiv i32 %32, 6
  %34 = load ptr, ptr %8, align 8, !tbaa !8
  %35 = call i32 @Ree_ManCountFadds(ptr noundef %34)
  %36 = sub nsw i32 %33, %35
  %37 = load ptr, ptr %7, align 8, !tbaa !8
  %38 = call i32 @Vec_IntSize(ptr noundef %37)
  %39 = sdiv i32 %38, 4
  %40 = call i32 (ptr, ...) @printf(ptr noundef @.str.5, i32 noundef %30, i32 noundef %36, i32 noundef %39)
  br label %41

41:                                               ; preds = %28, %2
  %42 = load i32, ptr %4, align 4, !tbaa !10
  %43 = icmp ne i32 %42, 0
  br i1 %43, label %44, label %48

44:                                               ; preds = %41
  %45 = call i64 @Abc_Clock()
  %46 = load i64, ptr %5, align 8, !tbaa !89
  %47 = sub nsw i64 %45, %46
  call void @Abc_PrintTime(i32 noundef 1, ptr noundef @.str.6, i64 noundef %47)
  br label %48

48:                                               ; preds = %44, %41
  %49 = load ptr, ptr %3, align 8, !tbaa !3
  %50 = load ptr, ptr %8, align 8, !tbaa !8
  %51 = load ptr, ptr %10, align 8, !tbaa !8
  store ptr %51, ptr %9, align 8, !tbaa !8
  %52 = load ptr, ptr %11, align 8, !tbaa !8
  %53 = call ptr @Acec_OrderTreeRoots(ptr noundef %49, ptr noundef %50, ptr noundef %51, ptr noundef %52)
  store ptr %53, ptr %10, align 8, !tbaa !8
  %54 = load ptr, ptr %9, align 8, !tbaa !8
  call void @Vec_IntFree(ptr noundef %54)
  %55 = load ptr, ptr %11, align 8, !tbaa !8
  call void @Vec_IntFree(ptr noundef %55)
  %56 = load ptr, ptr %3, align 8, !tbaa !3
  %57 = load ptr, ptr %7, align 8, !tbaa !8
  %58 = load ptr, ptr %10, align 8, !tbaa !8
  %59 = call ptr @Acec_RankTrees(ptr noundef %56, ptr noundef %57, ptr noundef %58)
  store ptr %59, ptr %11, align 8, !tbaa !8
  %60 = load ptr, ptr %3, align 8, !tbaa !3
  %61 = load ptr, ptr %7, align 8, !tbaa !8
  %62 = load ptr, ptr %8, align 8, !tbaa !8
  %63 = load ptr, ptr %10, align 8, !tbaa !8
  %64 = load ptr, ptr %11, align 8, !tbaa !8
  %65 = call ptr @Acec_FindXorLeaves(ptr noundef %60, ptr noundef %61, ptr noundef %62, ptr noundef %63, ptr noundef %64, ptr noundef %13)
  store ptr %65, ptr %12, align 8, !tbaa !61
  %66 = load ptr, ptr %11, align 8, !tbaa !8
  call void @Vec_IntFree(ptr noundef %66)
  %67 = load ptr, ptr %3, align 8, !tbaa !3
  %68 = load ptr, ptr %8, align 8, !tbaa !8
  %69 = load ptr, ptr %13, align 8, !tbaa !61
  call void @Acec_TreeVerifyConnections(ptr noundef %67, ptr noundef %68, ptr noundef %69)
  %70 = load ptr, ptr %3, align 8, !tbaa !3
  %71 = load ptr, ptr %8, align 8, !tbaa !8
  %72 = load ptr, ptr %13, align 8, !tbaa !61
  %73 = load ptr, ptr %12, align 8, !tbaa !61
  %74 = load ptr, ptr %10, align 8, !tbaa !8
  %75 = call ptr @Acec_FindBox(ptr noundef %70, ptr noundef %71, ptr noundef %72, ptr noundef %73, ptr noundef %74)
  store ptr %75, ptr %6, align 8, !tbaa !69
  %76 = load i32, ptr %4, align 4, !tbaa !10
  %77 = icmp ne i32 %76, 0
  br i1 %77, label %78, label %81

78:                                               ; preds = %48
  %79 = load ptr, ptr %6, align 8, !tbaa !69
  %80 = load ptr, ptr %8, align 8, !tbaa !8
  call void @Acec_TreePrintBox(ptr noundef %79, ptr noundef %80)
  br label %81

81:                                               ; preds = %78, %48
  %82 = load ptr, ptr %10, align 8, !tbaa !8
  call void @Vec_IntFree(ptr noundef %82)
  %83 = load ptr, ptr %12, align 8, !tbaa !61
  call void @Vec_WecFree(ptr noundef %83)
  %84 = load ptr, ptr %7, align 8, !tbaa !8
  call void @Vec_IntFree(ptr noundef %84)
  %85 = load ptr, ptr %8, align 8, !tbaa !8
  call void @Vec_IntFree(ptr noundef %85)
  %86 = load ptr, ptr %6, align 8, !tbaa !69
  call void @llvm.lifetime.end.p0(i64 8, ptr %13) #12
  call void @llvm.lifetime.end.p0(i64 8, ptr %12) #12
  call void @llvm.lifetime.end.p0(i64 8, ptr %11) #12
  call void @llvm.lifetime.end.p0(i64 8, ptr %10) #12
  call void @llvm.lifetime.end.p0(i64 8, ptr %9) #12
  call void @llvm.lifetime.end.p0(i64 8, ptr %8) #12
  call void @llvm.lifetime.end.p0(i64 8, ptr %7) #12
  call void @llvm.lifetime.end.p0(i64 8, ptr %6) #12
  call void @llvm.lifetime.end.p0(i64 8, ptr %5) #12
  ret ptr %86
}