; Function Attrs: nounwind uwtable
define noundef ptr @Acec_ProduceBox(ptr noundef %0, i32 noundef %1) local_unnamed_addr #0 {
  %3 = alloca %struct.timespec, align 8
  %4 = alloca %struct.timespec, align 8
  %5 = alloca ptr, align 8
  %6 = alloca ptr, align 8
  call void @llvm.lifetime.start.p0(i64 16, ptr nonnull %4) #21
  %7 = call i32 @clock_gettime(i32 noundef 1, ptr noundef nonnull %4) #21
  %8 = icmp slt i32 %7, 0
  br i1 %8, label %Abc_Clock.exit, label %9

9:                                                ; preds = %2
  %10 = load i64, ptr %4, align 8, !tbaa !82
  %.neg49 = mul i64 %10, -1000000
  %11 = getelementptr inbounds nuw i8, ptr %4, i64 8
  %12 = load i64, ptr %11, align 8, !tbaa !84
  %.neg = sdiv i64 %12, -1000
  %.neg50 = add i64 %.neg, %.neg49
  br label %Abc_Clock.exit

Abc_Clock.exit:                                   ; preds = %2, %9
  %.0.i.neg = phi i64 [ %.neg50, %9 ], [ 1, %2 ]
  call void @llvm.lifetime.end.p0(i64 16, ptr nonnull %4) #21
  call void @llvm.lifetime.start.p0(i64 8, ptr nonnull %5) #21
  %13 = call ptr @Ree_ManComputeCuts(ptr noundef %0, ptr noundef nonnull %5, i32 noundef 0) #21
  %14 = load ptr, ptr %5, align 8, !tbaa !85
  %15 = call ptr @Acec_FindXorRoots(ptr noundef %0, ptr noundef %14)
  %16 = load ptr, ptr %5, align 8, !tbaa !85
  %17 = call ptr @Acec_RankTrees(ptr noundef %0, ptr noundef %16, ptr noundef %15)
  call void @llvm.lifetime.start.p0(i64 8, ptr nonnull %6) #21
  store ptr null, ptr %6, align 8, !tbaa !62
  %18 = call i32 @Gia_ManLevelNum(ptr noundef %0) #21
  %.not = icmp eq i32 %1, 0
  br i1 %.not, label %.critedge, label %19

19:                                               ; preds = %Abc_Clock.exit
  %20 = call i32 @Ree_ManCountFadds(ptr noundef %13) #21
  %21 = getelementptr i8, ptr %13, i64 4
  %.val36 = load i32, ptr %21, align 4, !tbaa !28
  %22 = sdiv i32 %.val36, 6
  %23 = call i32 @Ree_ManCountFadds(ptr noundef %13) #21
  %24 = sub nsw i32 %22, %23
  %25 = load ptr, ptr %5, align 8, !tbaa !85
  %26 = getelementptr i8, ptr %25, i64 4
  %.val = load i32, ptr %26, align 4, !tbaa !28
  %27 = sdiv i32 %.val, 4
  %28 = call i32 (ptr, ...) @printf(ptr noundef nonnull dereferenceable(1) @.str.5, i32 noundef %20, i32 noundef %24, i32 noundef %27)
  call void @llvm.lifetime.start.p0(i64 16, ptr nonnull %3) #21
  %29 = call i32 @clock_gettime(i32 noundef 1, ptr noundef nonnull %3) #21
  %30 = icmp slt i32 %29, 0
  br i1 %30, label %Abc_Clock.exit38, label %31

31:                                               ; preds = %19
  %32 = load i64, ptr %3, align 8, !tbaa !82
  %33 = mul nsw i64 %32, 1000000
  %34 = getelementptr inbounds nuw i8, ptr %3, i64 8
  %35 = load i64, ptr %34, align 8, !tbaa !84
  %36 = sdiv i64 %35, 1000
  %37 = add nsw i64 %36, %33
  br label %Abc_Clock.exit38

Abc_Clock.exit38:                                 ; preds = %19, %31
  %.0.i37 = phi i64 [ %37, %31 ], [ -1, %19 ]
  call void @llvm.lifetime.end.p0(i64 16, ptr nonnull %3) #21
  %38 = add i64 %.0.i37, %.0.i.neg
  call void (i32, ptr, ...) @Abc_Print(i32 poison, ptr noundef nonnull @.str.8, ptr noundef nonnull @.str.6)
  %39 = sitofp i64 %38 to double
  %40 = fdiv double %39, 1.000000e+06
  call void (i32, ptr, ...) @Abc_Print(i32 poison, ptr noundef nonnull @.str.9, double noundef %40)
  br label %.critedge

.critedge:                                        ; preds = %Abc_Clock.exit, %Abc_Clock.exit38
  %41 = call ptr @Acec_OrderTreeRoots(ptr poison, ptr noundef %13, ptr noundef %15, ptr noundef %17)
  %42 = getelementptr inbounds nuw i8, ptr %15, i64 8
  %43 = load ptr, ptr %42, align 8, !tbaa !29
  %.not.i = icmp eq ptr %43, null
  br i1 %.not.i, label %Vec_IntFree.exit, label %44

44:                                               ; preds = %.critedge
  call void @free(ptr noundef nonnull %43) #21
  br label %Vec_IntFree.exit

Vec_IntFree.exit:                                 ; preds = %.critedge, %44
  call void @free(ptr noundef nonnull %15) #21
  %45 = getelementptr inbounds nuw i8, ptr %17, i64 8
  %46 = load ptr, ptr %45, align 8, !tbaa !29
  %.not.i39 = icmp eq ptr %46, null
  br i1 %.not.i39, label %Vec_IntFree.exit40, label %47

47:                                               ; preds = %Vec_IntFree.exit
  call void @free(ptr noundef nonnull %46) #21
  br label %Vec_IntFree.exit40

Vec_IntFree.exit40:                               ; preds = %Vec_IntFree.exit, %47
  call void @free(ptr noundef nonnull %17) #21
  %48 = load ptr, ptr %5, align 8, !tbaa !85
  %49 = call ptr @Acec_RankTrees(ptr noundef %0, ptr noundef %48, ptr noundef %41)
  %50 = load ptr, ptr %5, align 8, !tbaa !85
  %51 = call ptr @Acec_FindXorLeaves(ptr noundef %0, ptr noundef %50, ptr noundef %13, ptr noundef %41, ptr noundef %49, ptr noundef nonnull %6)
  %52 = getelementptr inbounds nuw i8, ptr %49, i64 8
  %53 = load ptr, ptr %52, align 8, !tbaa !29
  %.not.i41 = icmp eq ptr %53, null
  br i1 %.not.i41, label %Vec_IntFree.exit42, label %54

54:                                               ; preds = %Vec_IntFree.exit40
  call void @free(ptr noundef nonnull %53) #21
  br label %Vec_IntFree.exit42

Vec_IntFree.exit42:                               ; preds = %Vec_IntFree.exit40, %54
  call void @free(ptr noundef nonnull %49) #21
  %55 = load ptr, ptr %6, align 8, !tbaa !62
  call void @Acec_TreeVerifyConnections(ptr noundef %0, ptr noundef %13, ptr noundef %55) #21
  %56 = load ptr, ptr %6, align 8, !tbaa !62
  %57 = call ptr @Acec_FindBox(ptr noundef %0, ptr noundef %13, ptr noundef %56, ptr noundef %51, ptr noundef %41)
  br i1 %.not, label %59, label %58

58:                                               ; preds = %Vec_IntFree.exit42
  call void @Acec_TreePrintBox(ptr noundef %57, ptr noundef %13) #21
  br label %59

59:                                               ; preds = %58, %Vec_IntFree.exit42
  %60 = getelementptr inbounds nuw i8, ptr %41, i64 8
  %61 = load ptr, ptr %60, align 8, !tbaa !29
  %.not.i43 = icmp eq ptr %61, null
  br i1 %.not.i43, label %Vec_IntFree.exit44, label %62

62:                                               ; preds = %59
  call void @free(ptr noundef nonnull %61) #21
  br label %Vec_IntFree.exit44

Vec_IntFree.exit44:                               ; preds = %59, %62
  call void @free(ptr noundef nonnull %41) #21
  %63 = load i32, ptr %51, align 8, !tbaa !56
  %64 = icmp sgt i32 %63, 0
  %65 = getelementptr inbounds nuw i8, ptr %51, i64 8
  %.pre.i.i = load ptr, ptr %65, align 8, !tbaa !58
  br i1 %64, label %.lr.ph.i.i.preheader, label %._crit_edge.i.i

.lr.ph.i.i.preheader:                             ; preds = %Vec_IntFree.exit44
  %66 = zext nneg i32 %63 to i64
  br label %.lr.ph.i.i

.lr.ph.i.i:                                       ; preds = %.lr.ph.i.i.preheader, %70
  %indvars.iv.i.i = phi i64 [ %indvars.iv.next.i.i, %70 ], [ 0, %.lr.ph.i.i.preheader ]
  %67 = getelementptr inbounds nuw %struct.Vec_Int_t_, ptr %.pre.i.i, i64 %indvars.iv.i.i, i32 2
  %68 = load ptr, ptr %67, align 8, !tbaa !29
  %.not15.i.i = icmp eq ptr %68, null
  br i1 %.not15.i.i, label %70, label %69

69:                                               ; preds = %.lr.ph.i.i
  call void @free(ptr noundef nonnull %68) #21
  store ptr null, ptr %67, align 8, !tbaa !29
  br label %70

70:                                               ; preds = %69, %.lr.ph.i.i
  %indvars.iv.next.i.i = add nuw nsw i64 %indvars.iv.i.i, 1
  %exitcond.not = icmp eq i64 %indvars.iv.next.i.i, %66
  br i1 %exitcond.not, label %._crit_edge.thread.i.i, label %.lr.ph.i.i, !llvm.loop !86

._crit_edge.i.i:                                  ; preds = %Vec_IntFree.exit44
  %.not.i.i = icmp eq ptr %.pre.i.i, null
  br i1 %.not.i.i, label %Vec_WecFree.exit, label %._crit_edge.thread.i.i

._crit_edge.thread.i.i:                           ; preds = %70, %._crit_edge.i.i
  call void @free(ptr noundef nonnull %.pre.i.i) #21
  br label %Vec_WecFree.exit

Vec_WecFree.exit:                                 ; preds = %._crit_edge.i.i, %._crit_edge.thread.i.i
  call void @free(ptr noundef nonnull %51) #21
  %71 = load ptr, ptr %5, align 8, !tbaa !85
  %72 = getelementptr inbounds nuw i8, ptr %71, i64 8
  %73 = load ptr, ptr %72, align 8, !tbaa !29
  %.not.i45 = icmp eq ptr %73, null
  br i1 %.not.i45, label %Vec_IntFree.exit46, label %74

74:                                               ; preds = %Vec_WecFree.exit
  call void @free(ptr noundef nonnull %73) #21
  br label %Vec_IntFree.exit46

Vec_IntFree.exit46:                               ; preds = %Vec_WecFree.exit, %74
  call void @free(ptr noundef nonnull %71) #21
  %75 = getelementptr inbounds nuw i8, ptr %13, i64 8
  %76 = load ptr, ptr %75, align 8, !tbaa !29
  %.not.i47 = icmp eq ptr %76, null
  br i1 %.not.i47, label %Vec_IntFree.exit48, label %77

77:                                               ; preds = %Vec_IntFree.exit46
  call void @free(ptr noundef nonnull %76) #21
  br label %Vec_IntFree.exit48

Vec_IntFree.exit48:                               ; preds = %Vec_IntFree.exit46, %77
  call void @free(ptr noundef nonnull %13) #21
  call void @llvm.lifetime.end.p0(i64 8, ptr nonnull %6) #21
  call void @llvm.lifetime.end.p0(i64 8, ptr nonnull %5) #21
  ret ptr %57
}